target datalayout = "e-m:e-p270:32:32-p271:32:32-p272:64:64-i64:64-i128:128-f80:128-n8:16:32:64-S128"
target triple = "x86_64-pc-linux-gnu"

; Function Attrs: mustprogress nounwind uwtable
define linkonce_odr void @_ZN18duckdb_fastpforlib8internal17unpack_single_outILh28ELh28EjLh32EEENSt9enable_ifIXgeplT_T0_T2_EvE4typeERrPKT1_PS5_(ptr noundef nonnull align 8 dereferenceable(8) %0, ptr noalias noundef %1) #0 comdat {
  %3 = alloca ptr, align 8
  %4 = alloca ptr, align 8
  store ptr %0, ptr %3, align 8, !tbaa !38
  store ptr %1, ptr %4, align 8, !tbaa !16
  %5 = load ptr, ptr %3, align 8, !tbaa !38
  %6 = load ptr, ptr %5, align 8, !tbaa !16
  %7 = load i32, ptr %6, align 4, !tbaa !18
  %8 = lshr i32 %7, 28
  %9 = load ptr, ptr %4, align 8, !tbaa !16
  store i32 %8, ptr %9, align 4, !tbaa !18
  %10 = load ptr, ptr %3, align 8, !tbaa !38
  %11 = load ptr, ptr %10, align 8, !tbaa !16
  %12 = getelementptr inbounds nuw i32, ptr %11, i32 1
  store ptr %12, ptr %10, align 8, !tbaa !16
  %13 = load ptr, ptr %3, align 8, !tbaa !38
  %14 = load ptr, ptr %13, align 8, !tbaa !16
  %15 = load i32, ptr %14, align 4, !tbaa !18
  %16 = urem i32 %15, 16777216
  %17 = shl i32 %16, 4
  %18 = load ptr, ptr %4, align 8, !tbaa !16
  %19 = load i32, ptr %18, align 4, !tbaa !18
  %20 = or i32 %19, %17
  store i32 %20, ptr %18, align 4, !tbaa !18
  ret void
}

; Function Attrs: mustprogress uwtable
define linkonce_odr void @_ZN18duckdb_fastpforlib8internal8UnrollerILt28ELt1EE6UnpackERrPKjPj(ptr noundef nonnull align 8 dereferenceable(8) %0, ptr noalias noundef %1) #2 comdat align 2 {
  %3 = alloca ptr, align 8
  %4 = alloca ptr, align 8
  store ptr %0, ptr %3, align 8, !tbaa !38
  store ptr %1, ptr %4, align 8, !tbaa !16
  %5 = load ptr, ptr %3, align 8, !tbaa !38
  %6 = load ptr, ptr %4, align 8, !tbaa !16
  %7 = getelementptr inbounds i32, ptr %6, i64 1
  call void @_ZN18duckdb_fastpforlib8internal17unpack_single_outILh28ELh28EjLh32EEENSt9enable_ifIXgeplT_T0_T2_EvE4typeERrPKT1_PS5_(ptr noundef nonnull align 8 dereferenceable(8) %5, ptr noundef %7)
  %8 = load ptr, ptr %3, align 8, !tbaa !38
  %9 = load ptr, ptr %4, align 8, !tbaa !16
  call void @_ZN18duckdb_fastpforlib8internal8UnrollerILt28ELt2EE6UnpackERrPKjPj(ptr noundef nonnull align 8 dereferenceable(8) %8, ptr noundef %9)
  ret void
}

; Function Attrs: mustprogress nounwind uwtable
define linkonce_odr void @_ZN18duckdb_fastpforlib8internal17unpack_single_outILh28ELh0EjLh32EEENSt9enable_ifIXltplT_T0_T2_EvE4typeEPKT1_PS5_(ptr noalias noundef %0, ptr noalias noundef %1) #0 comdat {
  %3 = alloca ptr, align 8
  %4 = alloca ptr, align 8
  store ptr %0, ptr %3, align 8, !tbaa !16
  store ptr %1, ptr %4, align 8, !tbaa !16
  %5 = load ptr, ptr %3, align 8, !tbaa !16
  %6 = load i32, ptr %5, align 4, !tbaa !18
  %7 = lshr i32 %6, 0
  %8 = urem i32 %7, 268435456
  %9 = load ptr, ptr %4, align 8, !tbaa !16
  store i32 %8, ptr %9, align 4, !tbaa !18
  ret void
}

; Function Attrs: mustprogress uwtable
define linkonce_odr void @_ZN18duckdb_fastpforlib8internal8UnrollerILt28ELt0EE6UnpackERrPKjPj(ptr noundef nonnull align 8 dereferenceable(8) %0, ptr noalias noundef %1) #2 comdat align 2 {
  %3 = alloca ptr, align 8
  %4 = alloca ptr, align 8
  store ptr %0, ptr %3, align 8, !tbaa !38
  store ptr %1, ptr %4, align 8, !tbaa !16
  %5 = load ptr, ptr %3, align 8, !tbaa !38
  %6 = load ptr, ptr %5, align 8, !tbaa !16
  %7 = load ptr, ptr %4, align 8, !tbaa !16
  %8 = getelementptr inbounds i32, ptr %7, i64 0
  call void @_ZN18duckdb_fastpforlib8internal17unpack_single_outILh28ELh0EjLh32EEENSt9enable_ifIXltplT_T0_T2_EvE4typeEPKT1_PS5_(ptr noundef %6, ptr noundef %8)
  %9 = load ptr, ptr %3, align 8, !tbaa !38
  %10 = load ptr, ptr %4, align 8, !tbaa !16
  call void @_ZN18duckdb_fastpforlib8internal8UnrollerILt28ELt1EE6UnpackERrPKjPj(ptr noundef nonnull align 8 dereferenceable(8) %9, ptr noundef %10)
  ret void
}

; Function Attrs: mustprogress uwtable
define void @_ZN18duckdb_fastpforlib8internal14__fastunpack28EPKjPj(ptr noalias noundef %0, ptr noalias noundef %1) #2 {
  %3 = alloca ptr, align 8
  %4 = alloca ptr, align 8
  store ptr %0, ptr %3, align 8, !tbaa !16
  store ptr %1, ptr %4, align 8, !tbaa !16
  %5 = load ptr, ptr %4, align 8, !tbaa !16
  call void @_ZN18duckdb_fastpforlib8internal8UnrollerILt28ELt0EE6UnpackERrPKjPj(ptr noundef nonnull align 8 dereferenceable(8) %3, ptr noundef %5)
  ret void
}