; Function Attrs: mustprogress uwtable
define void @_ZN18duckdb_fastpforlib8internal14__fastunpack28EPKjPj(ptr noalias noundef %0, ptr noalias noundef initializes((0, 8)) %1) local_unnamed_addr #5 {
  %3 = alloca ptr, align 8
  tail call void @llvm.experimental.noalias.scope.decl(metadata !4633)
  tail call void @llvm.experimental.noalias.scope.decl(metadata !4636)
  tail call void @llvm.experimental.noalias.scope.decl(metadata !4639)
  %4 = load i32, ptr %0, align 4, !tbaa !7, !alias.scope !4636, !noalias !4641
  %5 = and i32 %4, 268435455
  store i32 %5, ptr %1, align 4, !tbaa !7, !alias.scope !4641, !noalias !4636
  tail call void @llvm.experimental.noalias.scope.decl(metadata !4642)
  %6 = getelementptr inbounds nuw i8, ptr %1, i64 4
  tail call void @llvm.experimental.noalias.scope.decl(metadata !4645)
  %7 = lshr i32 %4, 28
  %8 = getelementptr inbounds nuw i8, ptr %0, i64 4
  store ptr %8, ptr %3, align 8, !tbaa !1879, !noalias !4648
  %9 = load i32, ptr %8, align 4, !tbaa !7, !noalias !4648
  %10 = shl i32 %9, 4
  %11 = and i32 %10, 268435440
  %12 = or disjoint i32 %11, %7
  store i32 %12, ptr %6, align 4, !tbaa !7, !alias.scope !4648
  call void @_ZN18duckdb_fastpforlib8internal8UnrollerILt28ELt2EE6UnpackERrPKjPj(ptr noundef nonnull align 8 dereferenceable(8) %3, ptr noundef nonnull %1)
  ret void
}